; Function Attrs: mustprogress uwtable
define void @ucnv_unloadSharedDataIfReady_77(ptr noundef %0) local_unnamed_addr #0 {
  %.not = icmp eq ptr %0, null
  br i1 %.not, label %24, label %2

2:                                                ; preds = %1
  %3 = getelementptr inbounds nuw i8, ptr %0, i64 25
  %4 = load i8, ptr %3, align 1, !tbaa !34
  %.not3 = icmp eq i8 %4, 0
  br i1 %.not3, label %24, label %5

5:                                                ; preds = %2
  tail call void @umtx_lock_77(ptr noundef nonnull @_ZL13cnvCacheMutex)
  %6 = getelementptr inbounds nuw i8, ptr %0, i64 4
  %7 = load i32, ptr %6, align 4, !tbaa !22
  %.not7.i = icmp eq i32 %7, 0
  br i1 %.not7.i, label %.thread.i, label %8

8:                                                ; preds = %5
  %9 = add i32 %7, -1
  store i32 %9, ptr %6, align 4, !tbaa !22
  %10 = icmp eq i32 %9, 0
  br i1 %10, label %.thread.i, label %ucnv_unload_77.exit

.thread.i:                                        ; preds = %8, %5
  %11 = getelementptr inbounds nuw i8, ptr %0, i64 24
  %12 = load i8, ptr %11, align 8, !tbaa !37
  %13 = icmp eq i8 %12, 0
  br i1 %13, label %14, label %ucnv_unload_77.exit

14:                                               ; preds = %.thread.i
  %15 = getelementptr inbounds nuw i8, ptr %0, i64 32
  %16 = load ptr, ptr %15, align 8, !tbaa !39
  %17 = getelementptr inbounds nuw i8, ptr %16, i64 16
  %18 = load ptr, ptr %17, align 8, !tbaa !43
  %.not10.i.i = icmp eq ptr %18, null
  br i1 %.not10.i.i, label %20, label %19

19:                                               ; preds = %14
  tail call void %18(ptr noundef nonnull %0)
  br label %20

20:                                               ; preds = %19, %14
  %21 = getelementptr inbounds nuw i8, ptr %0, i64 8
  %22 = load ptr, ptr %21, align 8, !tbaa !38
  %.not11.i.i = icmp eq ptr %22, null
  br i1 %.not11.i.i, label %_ZL30ucnv_deleteSharedConverterDataP20UConverterSharedData.exit.i, label %23

23:                                               ; preds = %20
  tail call void @udata_close_77(ptr noundef nonnull %22)
  br label %_ZL30ucnv_deleteSharedConverterDataP20UConverterSharedData.exit.i

_ZL30ucnv_deleteSharedConverterDataP20UConverterSharedData.exit.i: ; preds = %23, %20
  tail call void @uprv_free_77(ptr noundef nonnull %0)
  br label %ucnv_unload_77.exit

ucnv_unload_77.exit:                              ; preds = %8, %.thread.i, %_ZL30ucnv_deleteSharedConverterDataP20UConverterSharedData.exit.i
  tail call void @umtx_unlock_77(ptr noundef nonnull @_ZL13cnvCacheMutex)
  br label %24

24:                                               ; preds = %ucnv_unload_77.exit, %2, %1
  ret void
}